target datalayout = "e-m:e-p270:32:32-p271:32:32-p272:64:64-i64:64-i128:128-f80:128-n8:16:32:64-S128"
target triple = "x86_64-pc-linux-gnu"

%struct.CVodeMemRec = type { double, ptr, ptr, i32, i32, i32, double, double, ptr, i32, ptr, ptr, i32, ptr, i32, i32, double, double, ptr, i32, i32, i32, ptr, ptr, ptr, i32, i32, ptr, ptr, ptr, i32, double, i32, i32, double, ptr, ptr, i32, ptr, ptr, i32, i32, i32, double, ptr, ptr, [13 x ptr], ptr, ptr, ptr, ptr, ptr, [13 x ptr], ptr, ptr, ptr, ptr, [13 x ptr], ptr, ptr, ptr, ptr, ptr, i32, [13 x ptr], ptr, ptr, ptr, ptr, ptr, i32, double, i32, i32, i32, i32, i32, double, double, double, double, double, double, double, double, [14 x double], [6 x double], [13 x double], double, double, double, double, double, double, double, double, double, double, double, i32, ptr, i32, i64, i32, i32, i32, i32, i32, double, double, double, i64, i64, i64, i64, i64, i64, i64, i64, i64, ptr, i64, i64, ptr, i64, i64, i64, i64, i64, i64, i32, i64, i64, i64, i64, i64, i64, double, double, double, ptr, ptr, ptr, ptr, ptr, i32, i32, i64, double, double, double, i32, double, i32, i32, i32, i32, i32, i32, i32, i32, i32, i32, i32, i32, i32, i32, i32, i32, ptr, ptr, ptr, i32, [6 x [4 x double]], i32, i64, ptr, i32, ptr, ptr, double, double, double, ptr, ptr, ptr, double, double, i32, i32, i64, ptr, i32, i32, ptr, i32 }

; Function Attrs: nounwind uwtable
define internal i32 @cvEwtSetSV(ptr noundef %0, ptr noundef %1, ptr noundef %2) #0 {
  %4 = alloca i32, align 4
  %5 = alloca ptr, align 8
  %6 = alloca ptr, align 8
  %7 = alloca ptr, align 8
  store ptr %0, ptr %5, align 8, !tbaa !7
  store ptr %1, ptr %6, align 8, !tbaa !103
  store ptr %2, ptr %7, align 8, !tbaa !103
  %8 = load ptr, ptr %6, align 8, !tbaa !103
  %9 = load ptr, ptr %5, align 8, !tbaa !7
  %10 = getelementptr inbounds nuw %struct.CVodeMemRec, ptr %9, i32 0, i32 50
  %11 = load ptr, ptr %10, align 8, !tbaa !163
  call void @N_VAbs(ptr noundef %8, ptr noundef %11)
  %12 = load ptr, ptr %5, align 8, !tbaa !7
  %13 = getelementptr inbounds nuw %struct.CVodeMemRec, ptr %12, i32 0, i32 6
  %14 = load double, ptr %13, align 8, !tbaa !107
  %15 = load ptr, ptr %5, align 8, !tbaa !7
  %16 = getelementptr inbounds nuw %struct.CVodeMemRec, ptr %15, i32 0, i32 50
  %17 = load ptr, ptr %16, align 8, !tbaa !163
  %18 = load ptr, ptr %5, align 8, !tbaa !7
  %19 = getelementptr inbounds nuw %struct.CVodeMemRec, ptr %18, i32 0, i32 8
  %20 = load ptr, ptr %19, align 8, !tbaa !170
  %21 = load ptr, ptr %5, align 8, !tbaa !7
  %22 = getelementptr inbounds nuw %struct.CVodeMemRec, ptr %21, i32 0, i32 50
  %23 = load ptr, ptr %22, align 8, !tbaa !163
  call void @N_VLinearSum(double noundef %14, ptr noundef %17, double noundef 1.000000e+00, ptr noundef %20, ptr noundef %23)
  %24 = load ptr, ptr %5, align 8, !tbaa !7
  %25 = getelementptr inbounds nuw %struct.CVodeMemRec, ptr %24, i32 0, i32 50
  %26 = load ptr, ptr %25, align 8, !tbaa !163
  %27 = call double @N_VMin(ptr noundef %26)
  %28 = fcmp ole double %27, 0.000000e+00
  br i1 %28, label %29, label %30

29:                                               ; preds = %3
  store i32 -1, ptr %4, align 4
  br label %35

30:                                               ; preds = %3
  %31 = load ptr, ptr %5, align 8, !tbaa !7
  %32 = getelementptr inbounds nuw %struct.CVodeMemRec, ptr %31, i32 0, i32 50
  %33 = load ptr, ptr %32, align 8, !tbaa !163
  %34 = load ptr, ptr %7, align 8, !tbaa !103
  call void @N_VInv(ptr noundef %33, ptr noundef %34)
  store i32 0, ptr %4, align 4
  br label %35

35:                                               ; preds = %30, %29
  %36 = load i32, ptr %4, align 4
  ret i32 %36
}

; Function Attrs: nounwind uwtable
define internal i32 @cvEwtSetSS(ptr noundef %0, ptr noundef %1, ptr noundef %2) #0 {
  %4 = alloca i32, align 4
  %5 = alloca ptr, align 8
  %6 = alloca ptr, align 8
  %7 = alloca ptr, align 8
  store ptr %0, ptr %5, align 8, !tbaa !7
  store ptr %1, ptr %6, align 8, !tbaa !103
  store ptr %2, ptr %7, align 8, !tbaa !103
  %8 = load ptr, ptr %6, align 8, !tbaa !103
  %9 = load ptr, ptr %5, align 8, !tbaa !7
  %10 = getelementptr inbounds nuw %struct.CVodeMemRec, ptr %9, i32 0, i32 50
  %11 = load ptr, ptr %10, align 8, !tbaa !163
  call void @N_VAbs(ptr noundef %8, ptr noundef %11)
  %12 = load ptr, ptr %5, align 8, !tbaa !7
  %13 = getelementptr inbounds nuw %struct.CVodeMemRec, ptr %12, i32 0, i32 6
  %14 = load double, ptr %13, align 8, !tbaa !107
  %15 = load ptr, ptr %5, align 8, !tbaa !7
  %16 = getelementptr inbounds nuw %struct.CVodeMemRec, ptr %15, i32 0, i32 50
  %17 = load ptr, ptr %16, align 8, !tbaa !163
  %18 = load ptr, ptr %5, align 8, !tbaa !7
  %19 = getelementptr inbounds nuw %struct.CVodeMemRec, ptr %18, i32 0, i32 50
  %20 = load ptr, ptr %19, align 8, !tbaa !163
  call void @N_VScale(double noundef %14, ptr noundef %17, ptr noundef %20)
  %21 = load ptr, ptr %5, align 8, !tbaa !7
  %22 = getelementptr inbounds nuw %struct.CVodeMemRec, ptr %21, i32 0, i32 50
  %23 = load ptr, ptr %22, align 8, !tbaa !163
  %24 = load ptr, ptr %5, align 8, !tbaa !7
  %25 = getelementptr inbounds nuw %struct.CVodeMemRec, ptr %24, i32 0, i32 7
  %26 = load double, ptr %25, align 8, !tbaa !169
  %27 = load ptr, ptr %5, align 8, !tbaa !7
  %28 = getelementptr inbounds nuw %struct.CVodeMemRec, ptr %27, i32 0, i32 50
  %29 = load ptr, ptr %28, align 8, !tbaa !163
  call void @N_VAddConst(ptr noundef %23, double noundef %26, ptr noundef %29)
  %30 = load ptr, ptr %5, align 8, !tbaa !7
  %31 = getelementptr inbounds nuw %struct.CVodeMemRec, ptr %30, i32 0, i32 50
  %32 = load ptr, ptr %31, align 8, !tbaa !163
  %33 = call double @N_VMin(ptr noundef %32)
  %34 = fcmp ole double %33, 0.000000e+00
  br i1 %34, label %35, label %36

35:                                               ; preds = %3
  store i32 -1, ptr %4, align 4
  br label %41

36:                                               ; preds = %3
  %37 = load ptr, ptr %5, align 8, !tbaa !7
  %38 = getelementptr inbounds nuw %struct.CVodeMemRec, ptr %37, i32 0, i32 50
  %39 = load ptr, ptr %38, align 8, !tbaa !163
  %40 = load ptr, ptr %7, align 8, !tbaa !103
  call void @N_VInv(ptr noundef %39, ptr noundef %40)
  store i32 0, ptr %4, align 4
  br label %41

41:                                               ; preds = %36, %35
  %42 = load i32, ptr %4, align 4
  ret i32 %42
}

; Function Attrs: nounwind uwtable
define i32 @cvEwtSet(ptr noundef %0, ptr noundef %1, ptr noundef %2) #0 {
  %4 = alloca ptr, align 8
  %5 = alloca ptr, align 8
  %6 = alloca ptr, align 8
  %7 = alloca ptr, align 8
  %8 = alloca i32, align 4
  store ptr %0, ptr %4, align 8, !tbaa !103
  store ptr %1, ptr %5, align 8, !tbaa !103
  store ptr %2, ptr %6, align 8, !tbaa !101
  call void @llvm.lifetime.start.p0(i64 8, ptr %7) #8
  call void @llvm.lifetime.start.p0(i64 4, ptr %8) #8
  store i32 0, ptr %8, align 4, !tbaa !3
  %9 = load ptr, ptr %6, align 8, !tbaa !101
  store ptr %9, ptr %7, align 8, !tbaa !7
  %10 = load ptr, ptr %7, align 8, !tbaa !7
  %11 = getelementptr inbounds nuw %struct.CVodeMemRec, ptr %10, i32 0, i32 5
  %12 = load i32, ptr %11, align 8, !tbaa !25
  switch i32 %12, label %23 [
    i32 1, label %13
    i32 2, label %18
  ]

13:                                               ; preds = %3
  %14 = load ptr, ptr %7, align 8, !tbaa !7
  %15 = load ptr, ptr %4, align 8, !tbaa !103
  %16 = load ptr, ptr %5, align 8, !tbaa !103
  %17 = call i32 @cvEwtSetSS(ptr noundef %14, ptr noundef %15, ptr noundef %16)
  store i32 %17, ptr %8, align 4, !tbaa !3
  br label %23

18:                                               ; preds = %3
  %19 = load ptr, ptr %7, align 8, !tbaa !7
  %20 = load ptr, ptr %4, align 8, !tbaa !103
  %21 = load ptr, ptr %5, align 8, !tbaa !103
  %22 = call i32 @cvEwtSetSV(ptr noundef %19, ptr noundef %20, ptr noundef %21)
  store i32 %22, ptr %8, align 4, !tbaa !3
  br label %23

23:                                               ; preds = %3, %18, %13
  %24 = load i32, ptr %8, align 4, !tbaa !3
  call void @llvm.lifetime.end.p0(i64 4, ptr %8) #8
  call void @llvm.lifetime.end.p0(i64 8, ptr %7) #8
  ret i32 %24
}