; Function Attrs: nounwind uwtable
define range(i32 -1, 1) i32 @cvEwtSet(ptr noundef %0, ptr noundef %1, ptr noundef readonly captures(none) %2) #0 {
  %4 = getelementptr inbounds nuw i8, ptr %2, i64 32
  %5 = load i32, ptr %4, align 8, !tbaa !108
  switch i32 %5, label %cvEwtSetSS.exit [
    i32 1, label %6
    i32 2, label %18
  ]

6:                                                ; preds = %3
  %7 = getelementptr inbounds nuw i8, ptr %2, i64 448
  %8 = load ptr, ptr %7, align 8, !tbaa !80
  tail call void @N_VAbs(ptr noundef %0, ptr noundef %8) #13
  %9 = getelementptr inbounds nuw i8, ptr %2, i64 40
  %10 = load double, ptr %9, align 8, !tbaa !47
  %11 = load ptr, ptr %7, align 8, !tbaa !80
  tail call void @N_VScale(double noundef %10, ptr noundef %11, ptr noundef %11) #13
  %12 = load ptr, ptr %7, align 8, !tbaa !80
  %13 = getelementptr inbounds nuw i8, ptr %2, i64 48
  %14 = load double, ptr %13, align 8, !tbaa !107
  tail call void @N_VAddConst(ptr noundef %12, double noundef %14, ptr noundef %12) #13
  %15 = load ptr, ptr %7, align 8, !tbaa !80
  %16 = tail call double @N_VMin(ptr noundef %15) #13
  %17 = fcmp ugt double %16, 0.000000e+00
  br i1 %17, label %cvEwtSetSS.exit.sink.split, label %cvEwtSetSS.exit

18:                                               ; preds = %3
  %19 = getelementptr inbounds nuw i8, ptr %2, i64 448
  %20 = load ptr, ptr %19, align 8, !tbaa !80
  tail call void @N_VAbs(ptr noundef %0, ptr noundef %20) #13
  %21 = getelementptr inbounds nuw i8, ptr %2, i64 40
  %22 = load double, ptr %21, align 8, !tbaa !47
  %23 = load ptr, ptr %19, align 8, !tbaa !80
  %24 = getelementptr inbounds nuw i8, ptr %2, i64 56
  %25 = load ptr, ptr %24, align 8, !tbaa !112
  tail call void @N_VLinearSum(double noundef %22, ptr noundef %23, double noundef 1.000000e+00, ptr noundef %25, ptr noundef %23) #13
  %26 = load ptr, ptr %19, align 8, !tbaa !80
  %27 = tail call double @N_VMin(ptr noundef %26) #13
  %28 = fcmp ugt double %27, 0.000000e+00
  br i1 %28, label %cvEwtSetSS.exit.sink.split, label %cvEwtSetSS.exit

cvEwtSetSS.exit.sink.split:                       ; preds = %18, %6
  %.sink.in = phi ptr [ %7, %6 ], [ %19, %18 ]
  %.sink = load ptr, ptr %.sink.in, align 8, !tbaa !80
  tail call void @N_VInv(ptr noundef %.sink, ptr noundef %1) #13
  br label %cvEwtSetSS.exit

cvEwtSetSS.exit:                                  ; preds = %cvEwtSetSS.exit.sink.split, %18, %6, %3
  %.0 = phi i32 [ 0, %3 ], [ -1, %6 ], [ -1, %18 ], [ 0, %cvEwtSetSS.exit.sink.split ]
  ret i32 %.0
}